target datalayout = "e-m:e-p270:32:32-p271:32:32-p272:64:64-i64:64-i128:128-f80:128-n8:16:32:64-S128"
target triple = "x86_64-unknown-linux-gnu"

%"class.v8::Local.19" = type { %"class.v8::LocalBase.20" }
%"class.v8::LocalBase.20" = type { %"class.v8::IndirectHandleBase" }
%"class.v8::IndirectHandleBase" = type { ptr }
%"class.v8::Local" = type { %"class.v8::LocalBase" }
%"class.v8::LocalBase" = type { %"class.v8::IndirectHandleBase" }
%"class.v8::MaybeLocal.18" = type { %"class.v8::Local.19" }
%"class.v8::Local.345" = type { %"class.v8::LocalBase.346" }
%"class.v8::LocalBase.346" = type { %"class.v8::IndirectHandleBase" }
%"class.v8::Maybe" = type { i8, i8 }

; Function Attrs: mustprogress nounwind uwtable
define internal noundef zeroext i1 @_ZN4node6crypto12_GLOBAL__N_13SetIN2v86ObjectEEEbNS3_5LocalINS3_7ContextEEENS5_IS4_EENS5_INS3_5ValueEEENS3_10MaybeLocalIT_EE(ptr %context.coerce, ptr %target.coerce, ptr %name.coerce, ptr %maybe_value.coerce) #4 {
entry:
  %slot.addr.i83 = alloca ptr, align 8
  %this.addr.i.i79 = alloca ptr, align 8
  %this.addr.i80 = alloca ptr, align 8
  %value.addr.i77 = alloca i64, align 8
  %shift_bits.i = alloca i32, align 4
  %heap_object_ptr.addr.i.i = alloca i64, align 8
  %offset.addr.i.i = alloca i32, align 4
  %addr.i.i = alloca i64, align 8
  %heap_object_ptr.addr.i75 = alloca i64, align 8
  %offset.addr.i76 = alloca i32, align 4
  %value.addr.i74 = alloca i64, align 8
  %heap_object_ptr.addr.i68 = alloca i64, align 8
  %offset.addr.i69 = alloca i32, align 4
  %addr.i70 = alloca i64, align 8
  %heap_object_ptr.addr.i65 = alloca i64, align 8
  %offset.addr.i66 = alloca i32, align 4
  %addr.i = alloca i64, align 8
  %heap_object_ptr.addr.i = alloca i64, align 8
  %offset.addr.i = alloca i32, align 4
  %obj.addr.i61 = alloca i64, align 8
  %obj.addr.i = alloca i64, align 8
  %map.i = alloca i64, align 8
  %value.addr.i59 = alloca i64, align 8
  %value.addr.i = alloca ptr, align 8
  %retval.i = alloca i1, align 1
  %this.addr.i57 = alloca ptr, align 8
  %obj.i = alloca i64, align 8
  %slot.addr.i = alloca ptr, align 8
  %this.addr.i.i53 = alloca ptr, align 8
  %this.addr.i54 = alloca ptr, align 8
  %this.addr.i50 = alloca ptr, align 8
  %this.addr.i47 = alloca ptr, align 8
  %this.addr.i44 = alloca ptr, align 8
  %this.addr.i42 = alloca ptr, align 8
  %this.addr.i40 = alloca ptr, align 8
  %other.addr.i = alloca ptr, align 8
  %this.addr.i.i = alloca ptr, align 8
  %this.addr.i38 = alloca ptr, align 8
  %this.addr.i36 = alloca ptr, align 8
  %this.addr.i34 = alloca ptr, align 8
  %that.i = alloca %"class.v8::Local.19", align 8
  %this.addr.i33 = alloca ptr, align 8
  %this.addr.i31 = alloca ptr, align 8
  %out.addr.i = alloca ptr, align 8
  %ref.tmp.i = alloca %"class.v8::Local", align 8
  %agg.tmp.i = alloca %"class.v8::Local.19", align 8
  %this.addr.i = alloca ptr, align 8
  %retval = alloca i1, align 1
  %context = alloca %"class.v8::Local.345", align 8
  %target = alloca %"class.v8::Local.19", align 8
  %name = alloca %"class.v8::Local", align 8
  %maybe_value = alloca %"class.v8::MaybeLocal.18", align 8
  %value = alloca %"class.v8::Local", align 8
  %ref.tmp = alloca %"class.v8::Maybe", align 1
  %agg.tmp = alloca %"class.v8::Local.345", align 8
  %agg.tmp18 = alloca %"class.v8::Local", align 8
  %agg.tmp19 = alloca %"class.v8::Local", align 8
  %coerce.dive = getelementptr inbounds %"class.v8::Local.345", ptr %context, i32 0, i32 0
  %coerce.dive1 = getelementptr inbounds %"class.v8::LocalBase.346", ptr %coerce.dive, i32 0, i32 0
  %coerce.dive2 = getelementptr inbounds %"class.v8::IndirectHandleBase", ptr %coerce.dive1, i32 0, i32 0
  store ptr %context.coerce, ptr %coerce.dive2, align 8
  %coerce.dive3 = getelementptr inbounds %"class.v8::Local.19", ptr %target, i32 0, i32 0
  %coerce.dive4 = getelementptr inbounds %"class.v8::LocalBase.20", ptr %coerce.dive3, i32 0, i32 0
  %coerce.dive5 = getelementptr inbounds %"class.v8::IndirectHandleBase", ptr %coerce.dive4, i32 0, i32 0
  store ptr %target.coerce, ptr %coerce.dive5, align 8
  %coerce.dive6 = getelementptr inbounds %"class.v8::Local", ptr %name, i32 0, i32 0
  %coerce.dive7 = getelementptr inbounds %"class.v8::LocalBase", ptr %coerce.dive6, i32 0, i32 0
  %coerce.dive8 = getelementptr inbounds %"class.v8::IndirectHandleBase", ptr %coerce.dive7, i32 0, i32 0
  store ptr %name.coerce, ptr %coerce.dive8, align 8
  %coerce.dive9 = getelementptr inbounds %"class.v8::MaybeLocal.18", ptr %maybe_value, i32 0, i32 0
  %coerce.dive10 = getelementptr inbounds %"class.v8::Local.19", ptr %coerce.dive9, i32 0, i32 0
  %coerce.dive11 = getelementptr inbounds %"class.v8::LocalBase.20", ptr %coerce.dive10, i32 0, i32 0
  %coerce.dive12 = getelementptr inbounds %"class.v8::IndirectHandleBase", ptr %coerce.dive11, i32 0, i32 0
  store ptr %maybe_value.coerce, ptr %coerce.dive12, align 8
  store ptr %value, ptr %this.addr.i, align 8
  %this1.i = load ptr, ptr %this.addr.i, align 8
  store ptr %this1.i, ptr %this.addr.i34, align 8
  %this1.i35 = load ptr, ptr %this.addr.i34, align 8
  store ptr %this1.i35, ptr %this.addr.i36, align 8
  %this1.i37 = load ptr, ptr %this.addr.i36, align 8
  store ptr null, ptr %this1.i37, align 8
  store ptr %maybe_value, ptr %this.addr.i31, align 8
  store ptr %value, ptr %out.addr.i, align 8
  %this1.i32 = load ptr, ptr %this.addr.i31, align 8
  call void @llvm.memcpy.p0.p0.i64(ptr align 8 %agg.tmp.i, ptr align 8 %this1.i32, i64 8, i1 false)
  %0 = load ptr, ptr %agg.tmp.i, align 8
  store ptr %0, ptr %that.i, align 8
  store ptr %ref.tmp.i, ptr %this.addr.i33, align 8
  %this3.i = load ptr, ptr %this.addr.i33, align 8
  store ptr %this3.i, ptr %this.addr.i40, align 8
  store ptr %that.i, ptr %other.addr.i, align 8
  %this1.i41 = load ptr, ptr %this.addr.i40, align 8
  %1 = load ptr, ptr %other.addr.i, align 8
  call void @llvm.memcpy.p0.p0.i64(ptr align 8 %this1.i41, ptr align 8 %1, i64 8, i1 false)
  %2 = load ptr, ptr %out.addr.i, align 8
  call void @llvm.memcpy.p0.p0.i64(ptr align 8 %2, ptr align 8 %ref.tmp.i, i64 8, i1 false)
  store ptr %this1.i32, ptr %this.addr.i38, align 8
  %this1.i39 = load ptr, ptr %this.addr.i38, align 8
  store ptr %this1.i39, ptr %this.addr.i.i, align 8
  %this1.i.i = load ptr, ptr %this.addr.i.i, align 8
  %3 = load ptr, ptr %this1.i.i, align 8
  %cmp.i.i = icmp eq ptr %3, null
  %lnot.i = xor i1 %cmp.i.i, true
  br i1 %lnot.i, label %if.end, label %if.then

if.then:                                          ; preds = %entry
  store i1 false, ptr %retval, align 1
  br label %return

if.end:                                           ; preds = %entry
  store ptr %value, ptr %this.addr.i42, align 8
  %this1.i43 = load ptr, ptr %this.addr.i42, align 8
  store ptr %this1.i43, ptr %this.addr.i54, align 8
  %this1.i55 = load ptr, ptr %this.addr.i54, align 8
  store ptr %this1.i55, ptr %this.addr.i.i53, align 8
  %this1.i.i56 = load ptr, ptr %this.addr.i.i53, align 8
  %4 = load ptr, ptr %this1.i.i56, align 8
  store ptr %4, ptr %slot.addr.i, align 8
  %5 = load ptr, ptr %slot.addr.i, align 8
  store ptr %5, ptr %this.addr.i44, align 8
  %this1.i45 = load ptr, ptr %this.addr.i44, align 8
  store ptr %this1.i45, ptr %this.addr.i57, align 8
  %this1.i58 = load ptr, ptr %this.addr.i57, align 8
  store ptr %this1.i58, ptr %value.addr.i, align 8
  %6 = load ptr, ptr %value.addr.i, align 8
  %7 = load i64, ptr %6, align 8
  store i64 %7, ptr %obj.i, align 8
  %8 = load i64, ptr %obj.i, align 8
  store i64 %8, ptr %value.addr.i59, align 8
  %9 = load i64, ptr %value.addr.i59, align 8
  %and.i = and i64 %9, 3
  %cmp.i60 = icmp eq i64 %and.i, 1
  br i1 %cmp.i60, label %if.end.i, label %if.then.i

if.then.i:                                        ; preds = %if.end
  store i1 false, ptr %retval.i, align 1
  br label %_ZNK2v85Value16QuickIsUndefinedEv.exit

if.end.i:                                         ; preds = %if.end
  %10 = load i64, ptr %obj.i, align 8
  store i64 %10, ptr %obj.addr.i, align 8
  %11 = load i64, ptr %obj.addr.i, align 8
  store i64 %11, ptr %heap_object_ptr.addr.i, align 8
  store i32 0, ptr %offset.addr.i, align 4
  %12 = load i64, ptr %heap_object_ptr.addr.i, align 8
  %13 = load i32, ptr %offset.addr.i, align 4
  store i64 %12, ptr %heap_object_ptr.addr.i68, align 8
  store i32 %13, ptr %offset.addr.i69, align 4
  %14 = load i64, ptr %heap_object_ptr.addr.i68, align 8
  %15 = load i32, ptr %offset.addr.i69, align 4
  %conv.i71 = sext i32 %15 to i64
  %add.i72 = add i64 %14, %conv.i71
  %sub.i73 = sub i64 %add.i72, 1
  store i64 %sub.i73, ptr %addr.i70, align 8
  %16 = load i64, ptr %addr.i70, align 8
  %17 = inttoptr i64 %16 to ptr
  %18 = load i64, ptr %17, align 8
  store i64 %18, ptr %map.i, align 8
  %19 = load i64, ptr %map.i, align 8
  store i64 %19, ptr %heap_object_ptr.addr.i65, align 8
  store i32 12, ptr %offset.addr.i66, align 4
  %20 = load i64, ptr %heap_object_ptr.addr.i65, align 8
  %21 = load i32, ptr %offset.addr.i66, align 4
  %conv.i67 = sext i32 %21 to i64
  %add.i = add i64 %20, %conv.i67
  %sub.i = sub i64 %add.i, 1
  store i64 %sub.i, ptr %addr.i, align 8
  %22 = load i64, ptr %addr.i, align 8
  %23 = inttoptr i64 %22 to ptr
  %24 = load i16, ptr %23, align 2
  %conv.i = zext i16 %24 to i32
  %cmp.i = icmp ne i32 %conv.i, 131
  br i1 %cmp.i, label %if.then4.i, label %if.end5.i

if.then4.i:                                       ; preds = %if.end.i
  store i1 false, ptr %retval.i, align 1
  br label %_ZNK2v85Value16QuickIsUndefinedEv.exit

if.end5.i:                                        ; preds = %if.end.i
  %25 = load i64, ptr %obj.i, align 8
  store i64 %25, ptr %obj.addr.i61, align 8
  %26 = load i64, ptr %obj.addr.i61, align 8
  store i64 %26, ptr %heap_object_ptr.addr.i75, align 8
  store i32 40, ptr %offset.addr.i76, align 4
  %27 = load i64, ptr %heap_object_ptr.addr.i75, align 8
  %28 = load i32, ptr %offset.addr.i76, align 4
  store i64 %27, ptr %heap_object_ptr.addr.i.i, align 8
  store i32 %28, ptr %offset.addr.i.i, align 4
  %29 = load i64, ptr %heap_object_ptr.addr.i.i, align 8
  %30 = load i32, ptr %offset.addr.i.i, align 4
  %conv.i.i = sext i32 %30 to i64
  %add.i.i = add i64 %29, %conv.i.i
  %sub.i.i = sub i64 %add.i.i, 1
  store i64 %sub.i.i, ptr %addr.i.i, align 8
  %31 = load i64, ptr %addr.i.i, align 8
  %32 = inttoptr i64 %31 to ptr
  %33 = load i64, ptr %32, align 8
  store i64 %33, ptr %value.addr.i74, align 8
  %34 = load i64, ptr %value.addr.i74, align 8
  store i64 %34, ptr %value.addr.i77, align 8
  store i32 32, ptr %shift_bits.i, align 4
  %35 = load i64, ptr %value.addr.i77, align 8
  %36 = load i32, ptr %shift_bits.i, align 4
  %sh_prom.i = zext i32 %36 to i64
  %shr.i = ashr i64 %35, %sh_prom.i
  %conv.i78 = trunc i64 %shr.i to i32
  %cmp7.i = icmp eq i32 %conv.i78, 5
  store i1 %cmp7.i, ptr %retval.i, align 1
  br label %_ZNK2v85Value16QuickIsUndefinedEv.exit

_ZNK2v85Value16QuickIsUndefinedEv.exit:           ; preds = %if.end5.i, %if.then4.i, %if.then.i
  %37 = load i1, ptr %retval.i, align 1
  br i1 %37, label %if.then15, label %if.end16

if.then15:                                        ; preds = %_ZNK2v85Value16QuickIsUndefinedEv.exit
  store i1 true, ptr %retval, align 1
  br label %return

if.end16:                                         ; preds = %_ZNK2v85Value16QuickIsUndefinedEv.exit
  store ptr %target, ptr %this.addr.i47, align 8
  %this1.i48 = load ptr, ptr %this.addr.i47, align 8
  store ptr %this1.i48, ptr %this.addr.i80, align 8
  %this1.i81 = load ptr, ptr %this.addr.i80, align 8
  store ptr %this1.i81, ptr %this.addr.i.i79, align 8
  %this1.i.i82 = load ptr, ptr %this.addr.i.i79, align 8
  %38 = load ptr, ptr %this1.i.i82, align 8
  store ptr %38, ptr %slot.addr.i83, align 8
  %39 = load ptr, ptr %slot.addr.i83, align 8
  call void @llvm.memcpy.p0.p0.i64(ptr align 8 %agg.tmp, ptr align 8 %context, i64 8, i1 false)
  call void @llvm.memcpy.p0.p0.i64(ptr align 8 %agg.tmp18, ptr align 8 %name, i64 8, i1 false)
  call void @llvm.memcpy.p0.p0.i64(ptr align 8 %agg.tmp19, ptr align 8 %value, i64 8, i1 false)
  %coerce.dive20 = getelementptr inbounds %"class.v8::Local.345", ptr %agg.tmp, i32 0, i32 0
  %coerce.dive21 = getelementptr inbounds %"class.v8::LocalBase.346", ptr %coerce.dive20, i32 0, i32 0
  %coerce.dive22 = getelementptr inbounds %"class.v8::IndirectHandleBase", ptr %coerce.dive21, i32 0, i32 0
  %40 = load ptr, ptr %coerce.dive22, align 8
  %coerce.dive23 = getelementptr inbounds %"class.v8::Local", ptr %agg.tmp18, i32 0, i32 0
  %coerce.dive24 = getelementptr inbounds %"class.v8::LocalBase", ptr %coerce.dive23, i32 0, i32 0
  %coerce.dive25 = getelementptr inbounds %"class.v8::IndirectHandleBase", ptr %coerce.dive24, i32 0, i32 0
  %41 = load ptr, ptr %coerce.dive25, align 8
  %coerce.dive26 = getelementptr inbounds %"class.v8::Local", ptr %agg.tmp19, i32 0, i32 0
  %coerce.dive27 = getelementptr inbounds %"class.v8::LocalBase", ptr %coerce.dive26, i32 0, i32 0
  %coerce.dive28 = getelementptr inbounds %"class.v8::IndirectHandleBase", ptr %coerce.dive27, i32 0, i32 0
  %42 = load ptr, ptr %coerce.dive28, align 8
  %call29 = call i16 @_ZN2v86Object3SetENS_5LocalINS_7ContextEEENS1_INS_5ValueEEES5_(ptr noundef nonnull align 1 dereferenceable(1) %39, ptr %40, ptr %41, ptr %42)
  store i16 %call29, ptr %ref.tmp, align 1
  store ptr %ref.tmp, ptr %this.addr.i50, align 8
  %this1.i51 = load ptr, ptr %this.addr.i50, align 8
  %43 = load i8, ptr %this1.i51, align 1
  %tobool.i = trunc i8 %43 to i1
  %lnot.i52 = xor i1 %tobool.i, true
  %lnot = xor i1 %lnot.i52, true
  store i1 %lnot, ptr %retval, align 1
  br label %return

return:                                           ; preds = %if.end16, %if.then15, %if.then
  %44 = load i1, ptr %retval, align 1
  ret i1 %44
}