; Function Attrs: mustprogress nounwind uwtable
define internal fastcc noundef zeroext i1 @_ZN4node6crypto12_GLOBAL__N_13SetIN2v86ObjectEEEbNS3_5LocalINS3_7ContextEEENS5_IS4_EENS5_INS3_5ValueEEENS3_10MaybeLocalIT_EE(ptr %context.coerce, ptr %target.coerce, ptr %name.coerce, ptr %maybe_value.coerce) unnamed_addr #3 {
entry:
  %cmp.i.i.not = icmp eq ptr %maybe_value.coerce, null
  br i1 %cmp.i.i.not, label %return, label %if.end

if.end:                                           ; preds = %entry
  %0 = load i64, ptr %maybe_value.coerce, align 8
  %and.i = and i64 %0, 3
  %cmp.i60 = icmp eq i64 %and.i, 1
  br i1 %cmp.i60, label %if.end.i, label %if.end16

if.end.i:                                         ; preds = %if.end
  %sub.i73 = add nsw i64 %0, -1
  %1 = inttoptr i64 %sub.i73 to ptr
  %2 = load i64, ptr %1, align 8
  %sub.i = add i64 %2, 11
  %3 = inttoptr i64 %sub.i to ptr
  %4 = load i16, ptr %3, align 2
  %cmp.i.not = icmp eq i16 %4, 131
  br i1 %cmp.i.not, label %if.end5.i, label %if.end16

if.end5.i:                                        ; preds = %if.end.i
  %sub.i.i = add i64 %0, 39
  %5 = inttoptr i64 %sub.i.i to ptr
  %6 = load i64, ptr %5, align 8
  %shr.i.mask = and i64 %6, -4294967296
  %cmp7.i = icmp eq i64 %shr.i.mask, 21474836480
  br i1 %cmp7.i, label %return, label %if.end16

if.end16:                                         ; preds = %if.end, %if.end.i, %if.end5.i
  %call29 = tail call i16 @_ZN2v86Object3SetENS_5LocalINS_7ContextEEENS1_INS_5ValueEEES5_(ptr noundef nonnull align 1 dereferenceable(1) %target.coerce, ptr %context.coerce, ptr %name.coerce, ptr nonnull %maybe_value.coerce) #17
  %7 = and i16 %call29, 1
  %tobool.i = icmp ne i16 %7, 0
  br label %return

return:                                           ; preds = %if.end5.i, %entry, %if.end16
  %retval.0 = phi i1 [ %tobool.i, %if.end16 ], [ false, %entry ], [ true, %if.end5.i ]
  ret i1 %retval.0
}